Certificate:
    Data:
        Version: 3 (0x2)
        Serial Number:
            c4:66:9e:47:19:9d:93:d2
    Signature Algorithm: sha256WithRSAEncryption
        Issuer: C=RU, ST=SPb, O=Ignite, OU=Dev, CN=test/emailAddress=test@ignite.com
        Validity
            Not Before: Jun 13 20:16:07 2018 GMT
            Not After : Jun 12 20:16:07 2021 GMT
        Subject: C=RU, ST=SPb, O=Ignite, OU=Dev, CN=test/emailAddress=test@ignite.com
        Subject Public Key Info:
            Public Key Algorithm: rsaEncryption
                Public-Key: (2048 bit)
                Modulus:
                    00:c6:56:9e:f6:e2:44:9f:59:e8:2e:5c:4d:96:6c:
                    8b:6e:9e:3d:38:24:e3:e2:5c:f8:f9:b5:49:76:06:
                    c2:90:56:fe:ea:58:1b:4b:8e:39:0f:bb:71:30:36:
                    d0:e9:6e:7f:74:d9:6c:86:9a:cc:68:38:96:49:6e:
                    22:56:cc:e6:65:f2:16:fa:5f:22:15:e8:14:e0:56:
                    1b:58:07:b4:75:86:0f:0c:2e:fe:23:8a:4e:83:73:
                    1c:2e:2b:8c:9c:10:cd:e3:fe:9f:65:75:c6:9e:75:
                    a7:d7:74:b9:43:49:87:53:c9:01:bf:5c:6e:5d:bf:
                    f1:6d:bc:ba:0f:d4:43:2d:82:1c:ef:45:84:c6:f0:
                    8f:44:38:22:71:21:5d:57:eb:9d:ca:de:33:bf:1d:
                    47:90:fd:de:51:b0:91:77:cd:2b:f0:54:50:a8:9f:
                    5d:8a:cd:e5:06:da:10:3a:cc:4d:72:91:64:28:a7:
                    9b:f9:2e:e9:79:b4:86:56:43:5b:ef:7e:d5:01:1e:
                    e9:0d:9c:e1:96:a6:a2:31:c0:d1:58:cb:f0:66:d0:
                    fc:e4:83:6d:25:10:d2:41:0f:3b:e8:3f:43:f7:45:
                    9d:ce:2e:eb:6e:70:4f:14:86:5b:fe:59:a4:bd:80:
                    4e:f8:5e:9c:a3:36:9a:4c:81:1e:b2:76:7d:52:c6:
                    1f:db
                Exponent: 65537 (0x10001)
        X509v3 extensions:
            X509v3 Subject Key Identifier: 
                63:CA:0F:E3:EB:C8:A3:36:A3:34:2D:F5:A0:04:1F:09:B1:9D:1D:B4
            X509v3 Authority Key Identifier: 
                keyid:63:CA:0F:E3:EB:C8:A3:36:A3:34:2D:F5:A0:04:1F:09:B1:9D:1D:B4

            X509v3 Basic Constraints: 
                CA:TRUE
    Signature Algorithm: sha256WithRSAEncryption
         3b:b0:4f:26:7f:4c:25:b0:56:86:f7:5d:67:45:6c:37:a8:35:
         2a:02:a3:67:5b:60:62:0c:90:f7:dd:4b:ed:2d:a3:bc:7f:15:
         f6:15:d4:38:d4:de:05:d0:d0:36:2b:71:29:ad:83:6e:13:4b:
         7d:a0:63:ee:6c:21:e0:2b:26:83:eb:02:ba:1c:4e:38:83:c0:
         1e:00:67:64:23:65:7e:52:96:b5:0b:c4:f7:fa:64:7f:fb:0d:
         be:e6:f0:f9:dd:a4:ec:a8:1a:c7:22:42:6c:21:3f:43:d6:c6:
         b1:d5:64:39:e5:b0:ca:49:77:7c:1a:a0:dd:ee:08:17:99:35:
         c5:53:9e:db:07:12:27:2f:61:e2:a5:ea:30:74:a3:09:20:39:
         a1:46:71:97:4a:5f:b5:a7:62:22:b6:51:93:bd:16:ca:dd:7f:
         f7:3a:9f:a1:28:6d:29:74:c0:ba:ef:c3:39:9f:31:a1:47:0e:
         26:14:88:1b:df:bc:9b:1a:38:a9:cd:61:be:b1:b1:f4:12:2a:
         0d:85:7d:85:24:f7:62:94:36:cb:ff:d7:c4:d7:92:6d:7f:fc:
         15:b1:4e:9f:80:e8:0b:53:b0:28:11:8f:9b:c6:42:86:80:04:
         8e:8b:d3:3b:7b:f8:86:40:b5:5e:92:ba:6f:90:47:19:0b:30:
         69:7e:8b:07
-----BEGIN CERTIFICATE-----
MIIDpTCCAo2gAwIBAgIJAMRmnkcZnZPSMA0GCSqGSIb3DQEBCwUAMGkxCzAJBgNV
BAYTAlJVMQwwCgYDVQQIEwNTUGIxDzANBgNVBAoTBklnbml0ZTEMMAoGA1UECxMD
RGV2MQ0wCwYDVQQDEwR0ZXN0MR4wHAYJKoZIhvcNAQkBFg90ZXN0QGlnbml0ZS5j
b20wHhcNMTgwNjEzMjAxNjA3WhcNMjEwNjEyMjAxNjA3WjBpMQswCQYDVQQGEwJS
VTEMMAoGA1UECBMDU1BiMQ8wDQYDVQQKEwZJZ25pdGUxDDAKBgNVBAsTA0RldjEN
MAsGA1UEAxMEdGVzdDEeMBwGCSqGSIb3DQEJARYPdGVzdEBpZ25pdGUuY29tMIIB
IjANBgkqhkiG9w0BAQEFAAOCAQ8AMIIBCgKCAQEAxlae9uJEn1noLlxNlmyLbp49
OCTj4lz4+bVJdgbCkFb+6lgbS445D7txMDbQ6W5/dNlshprMaDiWSW4iVszmZfIW
+l8iFegU4FYbWAe0dYYPDC7+I4pOg3McLiuMnBDN4/6fZXXGnnWn13S5Q0mHU8kB
v1xuXb/xbby6D9RDLYIc70WExvCPRDgicSFdV+udyt4zvx1HkP3eUbCRd80r8FRQ
qJ9dis3lBtoQOsxNcpFkKKeb+S7pebSGVkNb737VAR7pDZzhlqaiMcDRWMvwZtD8
5INtJRDSQQ876D9D90Wdzi7rbnBPFIZb/lmkvYBO+F6cozaaTIEesnZ9UsYf2wID
AQABo1AwTjAdBgNVHQ4EFgQUY8oP4+vIozajNC31oAQfCbGdHbQwHwYDVR0jBBgw
FoAUY8oP4+vIozajNC31oAQfCbGdHbQwDAYDVR0TBAUwAwEB/zANBgkqhkiG9w0B
AQsFAAOCAQEAO7BPJn9MJbBWhvddZ0VsN6g1KgKjZ1tgYgyQ991L7S2jvH8V9hXU
ONTeBdDQNitxKa2DbhNLfaBj7mwh4Csmg+sCuhxOOIPAHgBnZCNlflKWtQvE9/pk
f/sNvubw+d2k7KgaxyJCbCE/Q9bGsdVkOeWwykl3fBqg3e4IF5k1xVOe2wcSJy9h
4qXqMHSjCSA5oUZxl0pftadiIrZRk70Wyt1/9zqfoShtKXTAuu/DOZ8xoUcOJhSI
G9+8mxo4qc1hvrGx9BIqDYV9hST3YpQ2y//XxNeSbX/8FbFOn4DoC1OwKBGPm8ZC
hoAEjovTO3v4hkC1XpK6b5BHGQswaX6LBw==
-----END CERTIFICATE-----
